target datalayout = "e-m:e-p270:32:32-p271:32:32-p272:64:64-i64:64-i128:128-f80:128-n8:16:32:64-S128"
target triple = "x86_64-pc-linux-gnu"

@hf_ldp_tlv_ip_mpls_context_srcaddr = internal global i32 0, align 4
@ett_ldp_tlv_val = internal global i32 0, align 4
@.str.1116 = private unnamed_addr constant [19 x i8] c"MPLS Context Label\00", align 1

; Function Attrs: null_pointer_is_valid sspstrong uwtable
define internal void @dissect_tlv_mpls_context_lbl(ptr noundef %0, ptr noundef %1, i32 noundef %2, ptr noundef %3, i32 noundef %4) #0 {
  %6 = alloca ptr, align 8
  %7 = alloca ptr, align 8
  %8 = alloca i32, align 4
  %9 = alloca ptr, align 8
  %10 = alloca i32, align 4
  %11 = alloca ptr, align 8
  store ptr %0, ptr %6, align 8
  store ptr %1, ptr %7, align 8
  store i32 %2, ptr %8, align 4
  store ptr %3, ptr %9, align 8
  store i32 %4, ptr %10, align 4
  call void @llvm.lifetime.start.p0(i64 8, ptr %11) #7
  %12 = load ptr, ptr %9, align 8
  %13 = load i32, ptr @hf_ldp_tlv_ip_mpls_context_srcaddr, align 4
  %14 = load ptr, ptr %6, align 8
  %15 = load i32, ptr %8, align 4
  %16 = call ptr @proto_tree_add_item(ptr noundef %12, i32 noundef %13, ptr noundef %14, i32 noundef %15, i32 noundef 4, i32 noundef 0)
  %17 = load ptr, ptr %9, align 8
  %18 = load ptr, ptr %6, align 8
  %19 = load i32, ptr %8, align 4
  %20 = load i32, ptr %10, align 4
  %21 = load i32, ptr @ett_ldp_tlv_val, align 4
  %22 = call ptr @proto_tree_add_subtree(ptr noundef %17, ptr noundef %18, i32 noundef %19, i32 noundef %20, i32 noundef %21, ptr noundef null, ptr noundef @.str.1116)
  store ptr %22, ptr %11, align 8
  %23 = load ptr, ptr %6, align 8
  %24 = load ptr, ptr %7, align 8
  %25 = load i32, ptr %8, align 4
  %26 = add i32 %25, 4
  %27 = load ptr, ptr %11, align 8
  %28 = load i32, ptr %10, align 4
  %29 = call i32 @dissect_tlv(ptr noundef %23, ptr noundef %24, i32 noundef %26, ptr noundef %27, i32 noundef %28)
  call void @llvm.lifetime.end.p0(i64 8, ptr %11) #7
  ret void
}