; Function Attrs: null_pointer_is_valid sspstrong uwtable
define internal fastcc void @dissect_tlv_mpls_context_lbl(ptr noundef %0, ptr noundef %1, i32 noundef %2, ptr noundef %3, i32 noundef range(i32 0, 2147483644) %4) unnamed_addr #0 {
  %6 = load i32, ptr @hf_ldp_tlv_ip_mpls_context_srcaddr, align 4
  %7 = tail call ptr @proto_tree_add_item(ptr noundef %3, i32 noundef %6, ptr noundef %0, i32 noundef %2, i32 noundef 4, i32 noundef 0)
  %8 = load i32, ptr @ett_ldp_tlv_val, align 4
  %9 = tail call ptr @proto_tree_add_subtree(ptr noundef %3, ptr noundef %0, i32 noundef %2, i32 noundef %4, i32 noundef %8, ptr noundef null, ptr noundef nonnull @.str.1116)
  %10 = add i32 %2, 4
  %11 = tail call fastcc i32 @dissect_tlv(ptr noundef %0, ptr noundef %1, i32 noundef %10, ptr noundef %9, i32 noundef %4)
  ret void
}